; Function Attrs: mustprogress ssp uwtable
define noundef zeroext i1 @_ZN6open3d4core3nns21NearestNeighborSearch16MultiRadiusIndexEv(ptr noundef nonnull align 8 dereferenceable(216) %0) local_unnamed_addr #4 align 2 personality ptr @__gxx_personality_v0 {
  %2 = tail call noalias noundef nonnull dereferenceable(208) ptr @_Znwm(i64 noundef 208) #15
  invoke void @_ZN6open3d4core3nns14NanoFlannIndexC1Ev(ptr noundef nonnull align 8 dereferenceable(208) %2)
          to label %3 unwind label %8

3:                                                ; preds = %1
  %4 = load ptr, ptr %0, align 8, !tbaa !25
  store ptr %2, ptr %0, align 8, !tbaa !25
  %.not.i.i.i = icmp eq ptr %4, null
  br i1 %.not.i.i.i, label %_ZN6open3d4core3nns21NearestNeighborSearch8SetIndexEv.exit, label %_ZNKSt14default_deleteIN6open3d4core3nns14NanoFlannIndexEEclEPS3_.exit.i.i.i

_ZNKSt14default_deleteIN6open3d4core3nns14NanoFlannIndexEEclEPS3_.exit.i.i.i: ; preds = %3
  %5 = load ptr, ptr %4, align 8, !tbaa !4
  %6 = getelementptr inbounds nuw i8, ptr %5, i64 8
  %7 = load ptr, ptr %6, align 8
  tail call void %7(ptr noundef nonnull align 8 dereferenceable(208) %4) #14
  %.pre.i = load ptr, ptr %0, align 8, !tbaa !25
  br label %_ZN6open3d4core3nns21NearestNeighborSearch8SetIndexEv.exit

8:                                                ; preds = %1
  %9 = landingpad { ptr, i32 }
          cleanup
  tail call void @_ZdlPvm(ptr noundef nonnull %2, i64 noundef 208) #16
  resume { ptr, i32 } %9

_ZN6open3d4core3nns21NearestNeighborSearch8SetIndexEv.exit: ; preds = %3, %_ZNKSt14default_deleteIN6open3d4core3nns14NanoFlannIndexEEclEPS3_.exit.i.i.i
  %10 = phi ptr [ %2, %3 ], [ %.pre.i, %_ZNKSt14default_deleteIN6open3d4core3nns14NanoFlannIndexEEclEPS3_.exit.i.i.i ]
  %11 = getelementptr inbounds nuw i8, ptr %0, i64 24
  %12 = getelementptr inbounds nuw i8, ptr %0, i64 184
  %13 = load ptr, ptr %10, align 8, !tbaa !4
  %14 = getelementptr inbounds nuw i8, ptr %13, i64 16
  %15 = load ptr, ptr %14, align 8
  %16 = tail call noundef zeroext i1 %15(ptr noundef nonnull align 8 dereferenceable(208) %10, ptr noundef nonnull align 8 dereferenceable(160) %11, ptr noundef nonnull align 8 dereferenceable(32) %12)
  ret i1 %16
}